; ModuleID = 'source-C-CXX/2/840.c'
source_filename = "source-C-CXX/2/840.c"
target datalayout = "e-m:e-p270:32:32-p271:32:32-p272:64:64-i64:64-f80:128-n8:16:32:64-S128"
target triple = "x86_64-pc-linux-gnu"

@.str = private unnamed_addr constant [5 x i8] c"%d%d\00", align 1
@.str.1 = private unnamed_addr constant [3 x i8] c"%d\00", align 1
@a = dso_local local_unnamed_addr global [10000 x [256 x i8]] zeroinitializer, align 16
@str = private unnamed_addr constant [3 x i8] c"no\00", align 1
@str.4 = private unnamed_addr constant [4 x i8] c"yes\00", align 1

; Function Attrs: nofree nounwind sspstrong uwtable
define dso_local void @main() local_unnamed_addr #0 {
  %1 = alloca i32, align 4
  %2 = alloca i32, align 4
  %3 = alloca [1000 x i32], align 16
  %4 = bitcast i32* %1 to i8*
  call void @llvm.lifetime.start.p0i8(i64 4, i8* nonnull %4) #4
  %5 = bitcast i32* %2 to i8*
  call void @llvm.lifetime.start.p0i8(i64 4, i8* nonnull %5) #4
  %6 = bitcast [1000 x i32]* %3 to i8*
  call void @llvm.lifetime.start.p0i8(i64 4000, i8* nonnull %6) #4
  %7 = call i32 (i8*, ...) @__isoc99_scanf(i8* getelementptr inbounds ([5 x i8], [5 x i8]* @.str, i64 0, i64 0), i32* nonnull %1, i32* nonnull %2)
  %8 = load i32, i32* %1, align 4, !tbaa !5
  %9 = icmp sgt i32 %8, 0
  br i1 %9, label %12, label %64

10:                                               ; preds = %12
  %11 = icmp sgt i32 %17, 0
  br i1 %11, label %20, label %64

12:                                               ; preds = %0, %12
  %13 = phi i64 [ %16, %12 ], [ 0, %0 ]
  %14 = getelementptr inbounds [1000 x i32], [1000 x i32]* %3, i64 0, i64 %13
  %15 = call i32 (i8*, ...) @__isoc99_scanf(i8* getelementptr inbounds ([3 x i8], [3 x i8]* @.str.1, i64 0, i64 0), i32* nonnull %14)
  %16 = add nuw nsw i64 %13, 1
  %17 = load i32, i32* %1, align 4, !tbaa !5
  %18 = sext i32 %17 to i64
  %19 = icmp slt i64 %16, %18
  br i1 %19, label %12, label %10, !llvm.loop !9

20:                                               ; preds = %10, %59
  %21 = phi i32 [ %60, %59 ], [ %17, %10 ]
  %22 = phi i64 [ %61, %59 ], [ 0, %10 ]
  %23 = getelementptr inbounds [1000 x i32], [1000 x i32]* %3, i64 0, i64 %22
  %24 = trunc i64 %22 to i32
  %25 = sub nsw i32 %21, %24
  %26 = icmp sgt i32 %25, 0
  br i1 %26, label %27, label %59

27:                                               ; preds = %20, %52
  %28 = phi i32 [ %53, %52 ], [ %21, %20 ]
  %29 = phi i32 [ %54, %52 ], [ %21, %20 ]
  %30 = phi i64 [ %55, %52 ], [ 0, %20 ]
  %31 = phi i32 [ %56, %52 ], [ %25, %20 ]
  %32 = load i32, i32* %23, align 4, !tbaa !5
  %33 = add nuw nsw i64 %30, %22
  %34 = getelementptr inbounds [1000 x i32], [1000 x i32]* %3, i64 0, i64 %33
  %35 = load i32, i32* %34, align 4, !tbaa !5
  %36 = add nsw i32 %35, %32
  %37 = load i32, i32* %2, align 4, !tbaa !5
  %38 = icmp eq i32 %36, %37
  br i1 %38, label %39, label %41

39:                                               ; preds = %27
  %40 = call i32 @puts(i8* nonnull dereferenceable(1) getelementptr inbounds ([4 x i8], [4 x i8]* @str.4, i64 0, i64 0))
  br label %64

41:                                               ; preds = %27
  %42 = add nsw i32 %29, -1
  %43 = zext i32 %42 to i64
  %44 = icmp eq i64 %22, %43
  %45 = add nsw i32 %31, -1
  %46 = zext i32 %45 to i64
  %47 = icmp eq i64 %30, %46
  %48 = select i1 %44, i1 %47, i1 false
  br i1 %48, label %49, label %52

49:                                               ; preds = %41
  %50 = call i32 @puts(i8* nonnull dereferenceable(1) getelementptr inbounds ([3 x i8], [3 x i8]* @str, i64 0, i64 0))
  %51 = load i32, i32* %1, align 4, !tbaa !5
  br label %52

52:                                               ; preds = %41, %49
  %53 = phi i32 [ %28, %41 ], [ %51, %49 ]
  %54 = phi i32 [ %29, %41 ], [ %51, %49 ]
  %55 = add nuw nsw i64 %30, 1
  %56 = sub nsw i32 %54, %24
  %57 = sext i32 %56 to i64
  %58 = icmp slt i64 %55, %57
  br i1 %58, label %27, label %59, !llvm.loop !11

59:                                               ; preds = %52, %20
  %60 = phi i32 [ %21, %20 ], [ %53, %52 ]
  %61 = add nuw nsw i64 %22, 1
  %62 = sext i32 %60 to i64
  %63 = icmp slt i64 %61, %62
  br i1 %63, label %20, label %64, !llvm.loop !12

64:                                               ; preds = %59, %0, %10, %39
  call void @llvm.lifetime.end.p0i8(i64 4000, i8* nonnull %6) #4
  call void @llvm.lifetime.end.p0i8(i64 4, i8* nonnull %5) #4
  call void @llvm.lifetime.end.p0i8(i64 4, i8* nonnull %4) #4
  ret void
}

; Function Attrs: argmemonly mustprogress nofree nosync nounwind willreturn
declare void @llvm.lifetime.start.p0i8(i64 immarg, i8* nocapture) #1

; Function Attrs: nofree nounwind
declare noundef i32 @__isoc99_scanf(i8* nocapture noundef readonly, ...) local_unnamed_addr #2

; Function Attrs: argmemonly mustprogress nofree nosync nounwind willreturn
declare void @llvm.lifetime.end.p0i8(i64 immarg, i8* nocapture) #1

; Function Attrs: nofree nounwind
declare noundef i32 @puts(i8* nocapture noundef readonly) local_unnamed_addr #3


!llvm.module.flags = !{!0, !1, !2, !3}
!llvm.ident = !{!4}

!0 = !{i32 1, !"wchar_size", i32 4}
!1 = !{i32 7, !"PIC Level", i32 2}
!2 = !{i32 7, !"PIE Level", i32 2}
!3 = !{i32 7, !"uwtable", i32 1}
!4 = !{!"clang version 13.0.0"}
!5 = !{!6, !6, i64 0}
!6 = !{!"int", !7, i64 0}
!7 = !{!"omnipotent char", !8, i64 0}
!8 = !{!"Simple C/C++ TBAA"}
!9 = distinct !{!9, !10}
!10 = !{!"llvm.loop.mustprogress"}
!11 = distinct !{!11, !10}
!12 = distinct !{!12, !10}
